; Function Attrs: mustprogress uwtable
define hidden void @_ZN3smt5setup13setup_QF_BVREEv(ptr nocapture noundef nonnull readonly align 8 dereferenceable(33) %this) local_unnamed_addr #4 align 2 {
entry:
  %m_params.i = getelementptr inbounds i8, ptr %this, i64 16
  %0 = load ptr, ptr %m_params.i, align 8
  tail call void @_ZN10smt_params11setup_QF_BVEv(ptr noundef nonnull align 8 dereferenceable(800) %0)
  %1 = load ptr, ptr %this, align 8
  %call.i = tail call noalias noundef ptr @_ZN6memory8allocateEm(i64 noundef 1048)
  %2 = load ptr, ptr %this, align 8
  tail call void @_ZN3smt9theory_bvC1ERNS_7contextE(ptr noundef nonnull align 8 dereferenceable(1048) %call.i, ptr noundef nonnull align 8 dereferenceable(11616) %2)
  tail call void @_ZN3smt7context15register_pluginEPNS_6theoryE(ptr noundef nonnull align 8 dereferenceable(11616) %1, ptr noundef nonnull %call.i)
  %3 = load ptr, ptr %m_params.i, align 8
  tail call void @_ZN10smt_params12setup_QF_LIAEv(ptr noundef nonnull align 8 dereferenceable(800) %3)
  %4 = load ptr, ptr %m_params.i, align 8
  %m_arith_mode.i.i = getelementptr inbounds i8, ptr %4, i64 252
  %5 = load i32, ptr %m_arith_mode.i.i, align 4
  %cmp.i.i = icmp eq i32 %5, 2
  %6 = load ptr, ptr %this, align 8
  br i1 %cmp.i.i, label %if.then.i.i, label %if.else.i.i

if.then.i.i:                                      ; preds = %entry
  %call.i.i = tail call noalias noundef ptr @_ZN6memory8allocateEm(i64 noundef 1640)
  %7 = load ptr, ptr %this, align 8
  tail call void @_ZN3smt12theory_arithINS_6mi_extEEC1ERNS_7contextE(ptr noundef nonnull align 8 dereferenceable(1640) %call.i.i, ptr noundef nonnull align 8 dereferenceable(11616) %7)
  br label %_ZN3smt5setup12setup_QF_LIAEv.exit

if.else.i.i:                                      ; preds = %entry
  %call4.i.i = tail call noalias noundef ptr @_ZN6memory8allocateEm(i64 noundef 72)
  %8 = load ptr, ptr %this, align 8
  tail call void @_ZN3smt10theory_lraC1ERNS_7contextE(ptr noundef nonnull align 8 dereferenceable(72) %call4.i.i, ptr noundef nonnull align 8 dereferenceable(11616) %8)
  br label %_ZN3smt5setup12setup_QF_LIAEv.exit

_ZN3smt5setup12setup_QF_LIAEv.exit:               ; preds = %if.then.i.i, %if.else.i.i
  %call4.sink.i.i = phi ptr [ %call4.i.i, %if.else.i.i ], [ %call.i.i, %if.then.i.i ]
  tail call void @_ZN3smt7context15register_pluginEPNS_6theoryE(ptr noundef nonnull align 8 dereferenceable(11616) %6, ptr noundef nonnull %call4.sink.i.i)
  %9 = load ptr, ptr %this, align 8
  %call.i2 = tail call noalias noundef ptr @_ZN6memory8allocateEm(i64 noundef 4328)
  %10 = load ptr, ptr %this, align 8
  tail call void @_ZN3smt10theory_seqC1ERNS_7contextE(ptr noundef nonnull align 8 dereferenceable(4328) %call.i2, ptr noundef nonnull align 8 dereferenceable(11616) %10)
  tail call void @_ZN3smt7context15register_pluginEPNS_6theoryE(ptr noundef nonnull align 8 dereferenceable(11616) %9, ptr noundef nonnull %call.i2)
  %11 = load ptr, ptr %this, align 8
  %call.i.i3 = tail call noalias noundef ptr @_ZN6memory8allocateEm(i64 noundef 384)
  %12 = load ptr, ptr %this, align 8
  tail call void @_ZN3smt11theory_charC1ERNS_7contextE(ptr noundef nonnull align 8 dereferenceable(384) %call.i.i3, ptr noundef nonnull align 8 dereferenceable(11616) %12)
  tail call void @_ZN3smt7context15register_pluginEPNS_6theoryE(ptr noundef nonnull align 8 dereferenceable(11616) %11, ptr noundef nonnull %call.i.i3)
  ret void
}